target datalayout = "e-m:e-p270:32:32-p271:32:32-p272:64:64-i64:64-i128:128-f80:128-n8:16:32:64-S128"
target triple = "x86_64-pc-linux-gnu"

@input_filename = internal global ptr null, align 8
@.str.194 = private unnamed_addr constant [2 x i8] c"-\00", align 1
@.str.195 = private unnamed_addr constant [4 x i8] c"fd:\00", align 1
@.str.196 = private unnamed_addr constant [75 x i8] c"Argument '%s' provided as input filename, but '%s' was already specified.\0A\00", align 1

; Function Attrs: nounwind uwtable
define internal i32 @opt_input_file(ptr noundef %0, ptr noundef %1) #0 {
  %3 = alloca i32, align 4
  %4 = alloca ptr, align 8
  %5 = alloca ptr, align 8
  store ptr %0, ptr %4, align 8, !tbaa !37
  store ptr %1, ptr %5, align 8, !tbaa !4
  %6 = load ptr, ptr @input_filename, align 8, !tbaa !4
  %7 = icmp ne ptr %6, null
  br i1 %7, label %8, label %11

8:                                                ; preds = %2
  %9 = load ptr, ptr %5, align 8, !tbaa !4
  %10 = load ptr, ptr @input_filename, align 8, !tbaa !4
  call void (ptr, i32, ptr, ...) @av_log(ptr noundef null, i32 noundef 16, ptr noundef @.str.196, ptr noundef %9, ptr noundef %10)
  store i32 -22, ptr %3, align 4
  br label %23

11:                                               ; preds = %2
  %12 = load ptr, ptr %5, align 8, !tbaa !4
  %13 = call i32 @strcmp(ptr noundef %12, ptr noundef @.str.194) #15
  %14 = icmp ne i32 %13, 0
  br i1 %14, label %16, label %15

15:                                               ; preds = %11
  store ptr @.str.195, ptr %5, align 8, !tbaa !4
  br label %16

16:                                               ; preds = %15, %11
  %17 = load ptr, ptr %5, align 8, !tbaa !4
  %18 = call noalias ptr @av_strdup(ptr noundef %17)
  store ptr %18, ptr @input_filename, align 8, !tbaa !4
  %19 = load ptr, ptr @input_filename, align 8, !tbaa !4
  %20 = icmp ne ptr %19, null
  br i1 %20, label %22, label %21

21:                                               ; preds = %16
  store i32 -12, ptr %3, align 4
  br label %23

22:                                               ; preds = %16
  store i32 0, ptr %3, align 4
  br label %23

23:                                               ; preds = %22, %21, %8
  %24 = load i32, ptr %3, align 4
  ret i32 %24
}

; Function Attrs: nounwind uwtable
define internal i32 @opt_input_file_i(ptr noundef %0, ptr noundef %1, ptr noundef %2) #0 {
  %4 = alloca ptr, align 8
  %5 = alloca ptr, align 8
  %6 = alloca ptr, align 8
  store ptr %0, ptr %4, align 8, !tbaa !37
  store ptr %1, ptr %5, align 8, !tbaa !4
  store ptr %2, ptr %6, align 8, !tbaa !4
  %7 = load ptr, ptr %4, align 8, !tbaa !37
  %8 = load ptr, ptr %6, align 8, !tbaa !4
  %9 = call i32 @opt_input_file(ptr noundef %7, ptr noundef %8)
  ret i32 0
}