; Function Attrs: nounwind uwtable
define internal noundef i32 @opt_input_file_i(ptr readnone captures(none) %0, ptr readnone captures(none) %1, ptr noundef %2) #0 {
  %4 = load ptr, ptr @input_filename, align 8, !tbaa !13
  %.not.i = icmp eq ptr %4, null
  br i1 %.not.i, label %sub_0.i, label %5

5:                                                ; preds = %3
  tail call void (ptr, i32, ptr, ...) @av_log(ptr noundef null, i32 noundef 16, ptr noundef nonnull @.str.196, ptr noundef %2, ptr noundef nonnull %4) #20
  br label %opt_input_file.exit

sub_0.i:                                          ; preds = %3
  %6 = load i8, ptr %2, align 1
  %.not6.i = icmp eq i8 %6, 45
  br i1 %.not6.i, label %sub_1.i, label %.tail.i

sub_1.i:                                          ; preds = %sub_0.i
  %7 = getelementptr inbounds nuw i8, ptr %2, i64 1
  %8 = load i8, ptr %7, align 1
  %9 = icmp eq i8 %8, 0
  %10 = select i1 %9, ptr @.str.195, ptr %2
  br label %.tail.i

.tail.i:                                          ; preds = %sub_1.i, %sub_0.i
  %.not4.i = phi ptr [ %2, %sub_0.i ], [ %10, %sub_1.i ]
  %11 = tail call noalias ptr @av_strdup(ptr noundef nonnull %.not4.i) #20
  store ptr %11, ptr @input_filename, align 8, !tbaa !13
  br label %opt_input_file.exit

opt_input_file.exit:                              ; preds = %5, %.tail.i
  ret i32 0
}